target datalayout = "e-m:e-p270:32:32-p271:32:32-p272:64:64-i64:64-i128:128-f80:128-n8:16:32:64-S128"
target triple = "x86_64-pc-linux-gnu"

%struct.auth_credential_t = type { i32, i32, ptr, i8, %struct.in_addr, i8, i32, i32, ptr, i32 }
%struct.in_addr = type { i32 }

; Function Attrs: nounwind uwtable
define dso_local i32 @auth_p_verify(ptr noundef %0, ptr noundef %1) #0 {
  %3 = alloca i32, align 4
  %4 = alloca ptr, align 8
  %5 = alloca ptr, align 8
  %6 = alloca i32, align 4
  %7 = alloca ptr, align 8
  %8 = alloca i32, align 4
  store ptr %0, ptr %4, align 8
  store ptr %1, ptr %5, align 8
  call void @llvm.lifetime.start.p0(i64 4, ptr %6) #9
  call void @llvm.lifetime.start.p0(i64 8, ptr %7) #9
  %9 = load ptr, ptr %4, align 8
  %10 = icmp ne ptr %9, null
  br i1 %10, label %13, label %11

11:                                               ; preds = %2
  %12 = call ptr @__errno_location() #11
  store i32 6004, ptr %12, align 4
  store i32 -1, ptr %3, align 4
  store i32 1, ptr %8, align 4
  br label %29

13:                                               ; preds = %2
  %14 = load ptr, ptr %4, align 8
  %15 = getelementptr inbounds nuw %struct.auth_credential_t, ptr %14, i32 0, i32 5
  %16 = load i8, ptr %15, align 8, !range !8, !noundef !9
  %17 = trunc i8 %16 to i1
  br i1 %17, label %18, label %19

18:                                               ; preds = %13
  store i32 0, ptr %3, align 4
  store i32 1, ptr %8, align 4
  br label %29

19:                                               ; preds = %13
  %20 = load ptr, ptr %5, align 8
  %21 = call ptr @slurm_auth_opts_to_socket(ptr noundef %20)
  store ptr %21, ptr %7, align 8
  %22 = load ptr, ptr %4, align 8
  %23 = load ptr, ptr %7, align 8
  %24 = call i32 @_decode_cred(ptr noundef %22, ptr noundef %23, i1 noundef zeroext false)
  store i32 %24, ptr %6, align 4
  call void @slurm_xfree(ptr noundef %7)
  %25 = load i32, ptr %6, align 4
  %26 = icmp slt i32 %25, 0
  br i1 %26, label %27, label %28

27:                                               ; preds = %19
  store i32 -1, ptr %3, align 4
  store i32 1, ptr %8, align 4
  br label %29

28:                                               ; preds = %19
  store i32 0, ptr %3, align 4
  store i32 1, ptr %8, align 4
  br label %29

29:                                               ; preds = %28, %27, %18, %11
  call void @llvm.lifetime.end.p0(i64 8, ptr %7) #9
  call void @llvm.lifetime.end.p0(i64 4, ptr %6) #9
  %30 = load i32, ptr %3, align 4
  ret i32 %30
}