; Function Attrs: nounwind uwtable
define dso_local range(i32 -1, 1) i32 @auth_p_verify(ptr noundef %0, ptr noundef %1) local_unnamed_addr #0 {
  %3 = alloca ptr, align 8
  call void @llvm.lifetime.start.p0(i64 8, ptr nonnull %3) #13
  %.not = icmp eq ptr %0, null
  br i1 %.not, label %4, label %6

4:                                                ; preds = %2
  %5 = tail call ptr @__errno_location() #14
  store i32 6004, ptr %5, align 4
  br label %13

6:                                                ; preds = %2
  %7 = getelementptr inbounds nuw i8, ptr %0, i64 24
  %8 = load i8, ptr %7, align 8, !range !8, !noundef !9
  %9 = trunc nuw i8 %8 to i1
  br i1 %9, label %13, label %10

10:                                               ; preds = %6
  %11 = tail call ptr @slurm_auth_opts_to_socket(ptr noundef %1) #13
  store ptr %11, ptr %3, align 8
  %12 = tail call fastcc i32 @_decode_cred(ptr noundef %0, ptr noundef %11, i1 noundef zeroext false)
  call void @slurm_xfree(ptr noundef nonnull %3) #13
  br label %13

13:                                               ; preds = %10, %6, %4
  %.0 = phi i32 [ -1, %4 ], [ 0, %6 ], [ %12, %10 ]
  call void @llvm.lifetime.end.p0(i64 8, ptr nonnull %3) #13
  ret i32 %.0
}